target datalayout = "e-m:e-p270:32:32-p271:32:32-p272:64:64-i64:64-i128:128-f80:128-n8:16:32:64-S128"
target triple = "x86_64-pc-linux-gnu"

%struct.stbtt_pack_range = type { float, i32, ptr, i32, ptr, i8, i8 }

; Function Attrs: nounwind uwtable
define i32 @stbtt_PackFontRange(ptr noundef %0, ptr noundef %1, i32 noundef %2, float noundef %3, i32 noundef %4, i32 noundef %5, ptr noundef %6) #0 {
  %8 = alloca ptr, align 8
  %9 = alloca ptr, align 8
  %10 = alloca i32, align 4
  %11 = alloca float, align 4
  %12 = alloca i32, align 4
  %13 = alloca i32, align 4
  %14 = alloca ptr, align 8
  %15 = alloca %struct.stbtt_pack_range, align 8
  store ptr %0, ptr %8, align 8, !tbaa !200
  store ptr %1, ptr %9, align 8, !tbaa !25
  store i32 %2, ptr %10, align 4, !tbaa !14
  store float %3, ptr %11, align 4, !tbaa !67
  store i32 %4, ptr %12, align 4, !tbaa !14
  store i32 %5, ptr %13, align 4, !tbaa !14
  store ptr %6, ptr %14, align 8, !tbaa !3
  call void @llvm.lifetime.start.p0(i64 40, ptr %15) #8
  %16 = load i32, ptr %12, align 4, !tbaa !14
  %17 = getelementptr inbounds nuw %struct.stbtt_pack_range, ptr %15, i32 0, i32 1
  store i32 %16, ptr %17, align 4, !tbaa !234
  %18 = getelementptr inbounds nuw %struct.stbtt_pack_range, ptr %15, i32 0, i32 2
  store ptr null, ptr %18, align 8, !tbaa !233
  %19 = load i32, ptr %13, align 4, !tbaa !14
  %20 = getelementptr inbounds nuw %struct.stbtt_pack_range, ptr %15, i32 0, i32 3
  store i32 %19, ptr %20, align 8, !tbaa !232
  %21 = load ptr, ptr %14, align 8, !tbaa !3
  %22 = getelementptr inbounds nuw %struct.stbtt_pack_range, ptr %15, i32 0, i32 4
  store ptr %21, ptr %22, align 8, !tbaa !237
  %23 = load float, ptr %11, align 4, !tbaa !67
  %24 = getelementptr inbounds nuw %struct.stbtt_pack_range, ptr %15, i32 0, i32 0
  store float %23, ptr %24, align 8, !tbaa !228
  %25 = load ptr, ptr %8, align 8, !tbaa !200
  %26 = load ptr, ptr %9, align 8, !tbaa !25
  %27 = load i32, ptr %10, align 4, !tbaa !14
  %28 = call i32 @stbtt_PackFontRanges(ptr noundef %25, ptr noundef %26, i32 noundef %27, ptr noundef %15, i32 noundef 1)
  call void @llvm.lifetime.end.p0(i64 40, ptr %15) #8
  ret i32 %28
}