; Function Attrs: nounwind uwtable
define range(i32 0, 2) i32 @stbtt_PackFontRange(ptr noundef captures(none) %0, ptr noundef %1, i32 noundef %2, float noundef %3, i32 noundef %4, i32 noundef %5, ptr noundef %6) local_unnamed_addr #11 {
  %8 = alloca %struct.stbtt_pack_range, align 8
  call void @llvm.lifetime.start.p0(i64 40, ptr nonnull %8) #32
  %9 = getelementptr inbounds nuw i8, ptr %8, i64 4
  store i32 %4, ptr %9, align 4, !tbaa !209
  %10 = getelementptr inbounds nuw i8, ptr %8, i64 8
  store ptr null, ptr %10, align 8, !tbaa !208
  %11 = getelementptr inbounds nuw i8, ptr %8, i64 16
  store i32 %5, ptr %11, align 8, !tbaa !207
  %12 = getelementptr inbounds nuw i8, ptr %8, i64 24
  store ptr %6, ptr %12, align 8, !tbaa !212
  store float %3, ptr %8, align 8, !tbaa !203
  %13 = call i32 @stbtt_PackFontRanges(ptr noundef %0, ptr noundef %1, i32 noundef %2, ptr noundef nonnull %8, i32 noundef 1)
  call void @llvm.lifetime.end.p0(i64 40, ptr nonnull %8) #32
  ret i32 %13
}